; Function Attrs: mustprogress uwtable
define hidden void @_ZN4cvc58internal6theory8booleans18TheoryBoolRewriter14rewriteViaRuleENS_16ProofRewriteRuleERKNS0_12NodeTemplateILb1EEE(ptr dead_on_unwind noalias writable sret(%"class.cvc5::internal::NodeTemplate") align 8 captures(none) %0, ptr noundef nonnull align 8 dereferenceable(80) %1, i32 noundef %2, ptr noundef nonnull readonly align 8 captures(none) dereferenceable(8) %3) unnamed_addr #3 align 2 personality ptr @__gxx_personality_v0 {
  %cond = icmp eq i32 %2, 5
  br i1 %cond, label %5, label %_ZN4cvc58internal12NodeTemplateILb1EED2Ev.exit.thread

5:                                                ; preds = %4
  %6 = tail call noundef ptr @_ZNK4cvc58internal6theory14TheoryRewriter11nodeManagerEv(ptr noundef nonnull align 8 dereferenceable(64) %1)
  tail call void @_ZN4cvc58internal6theory8booleans18TheoryBoolRewriter14computeNnfNormEPNS0_11NodeManagerERKNS0_12NodeTemplateILb1EEEPNS0_19TConvProofGeneratorE(ptr dead_on_unwind writable sret(%"class.cvc5::internal::NodeTemplate") align 8 %0, ptr noundef %6, ptr noundef nonnull align 8 dereferenceable(8) %3, ptr noundef null)
  %7 = load ptr, ptr %0, align 8, !tbaa !29
  %8 = load ptr, ptr %3, align 8, !tbaa !29
  %.not = icmp eq ptr %7, %8
  br i1 %.not, label %9, label %_ZN4cvc58internal12NodeTemplateILb1EED2Ev.exit

9:                                                ; preds = %5
  %10 = load i64, ptr %7, align 8
  %11 = and i64 %10, 1152920405095219200
  %.not.i.i = icmp eq i64 %11, 1152920405095219200
  br i1 %.not.i.i, label %_ZN4cvc58internal12NodeTemplateILb1EED2Ev.exit.thread, label %12, !prof !33

12:                                               ; preds = %9
  %13 = add i64 %10, 1152920405095219200
  %14 = and i64 %13, 1152920405095219200
  %15 = and i64 %10, -1152920405095219201
  %16 = or disjoint i64 %14, %15
  store i64 %16, ptr %7, align 8
  %17 = icmp eq i64 %14, 0
  br i1 %17, label %18, label %_ZN4cvc58internal12NodeTemplateILb1EED2Ev.exit.thread, !prof !33

18:                                               ; preds = %12
  invoke void @_ZN4cvc58internal4expr9NodeValue15markForDeletionEv(ptr noundef nonnull align 8 dereferenceable(24) %7)
          to label %_ZN4cvc58internal12NodeTemplateILb1EED2Ev.exit.thread unwind label %19

19:                                               ; preds = %18
  %20 = landingpad { ptr, i32 }
          catch ptr null
  %21 = extractvalue { ptr, i32 } %20, 0
  tail call void @__clang_call_terminate(ptr %21) #23
  unreachable

_ZN4cvc58internal12NodeTemplateILb1EED2Ev.exit.thread: ; preds = %9, %12, %18, %4
  tail call void @llvm.experimental.noalias.scope.decl(metadata !35)
  %22 = load ptr, ptr @_ZN4cvc58internal12NodeTemplateILb1EE6s_nullE, align 8, !tbaa !29, !noalias !35
  store ptr %22, ptr %0, align 8, !tbaa !29, !alias.scope !35
  %23 = load i64, ptr %22, align 8, !noalias !35
  %24 = lshr i64 %23, 40
  %25 = trunc nuw nsw i64 %24 to i32
  %26 = and i32 %25, 1048575
  %27 = icmp samesign ult i32 %26, 1048574
  br i1 %27, label %28, label %33, !prof !34

28:                                               ; preds = %_ZN4cvc58internal12NodeTemplateILb1EED2Ev.exit.thread
  %29 = add i64 %23, 1099511627776
  %30 = and i64 %29, 1152920405095219200
  %31 = and i64 %23, -1152920405095219201
  %32 = or disjoint i64 %30, %31
  store i64 %32, ptr %22, align 8, !noalias !35
  br label %_ZN4cvc58internal12NodeTemplateILb1EED2Ev.exit

33:                                               ; preds = %_ZN4cvc58internal12NodeTemplateILb1EED2Ev.exit.thread
  %34 = icmp eq i32 %26, 1048574
  br i1 %34, label %35, label %_ZN4cvc58internal12NodeTemplateILb1EED2Ev.exit, !prof !33

35:                                               ; preds = %33
  %36 = or i64 %23, 1152920405095219200
  store i64 %36, ptr %22, align 8, !noalias !35
  tail call void @_ZN4cvc58internal4expr9NodeValue20markRefCountMaxedOutEv(ptr noundef nonnull align 8 dereferenceable(24) %22), !noalias !35
  br label %_ZN4cvc58internal12NodeTemplateILb1EED2Ev.exit

_ZN4cvc58internal12NodeTemplateILb1EED2Ev.exit:   ; preds = %35, %33, %28, %5
  ret void
}